; Function Attrs: mustprogress uwtable
define hidden void @_ZN3sls10smt_solver11assert_exprEP4expr(ptr noundef nonnull align 8 dereferenceable(488) %0, ptr noundef %1) local_unnamed_addr #3 align 2 {
  %3 = getelementptr inbounds nuw i8, ptr %1, i64 4
  %4 = load i32, ptr %3, align 4
  %5 = and i32 %4, 65535
  %6 = icmp eq i32 %5, 0
  br i1 %6, label %7, label %_ZN15ref_vector_coreI4expr19ref_manager_wrapperIS0_11ast_managerEE7inc_refEPS0_.exit.i

7:                                                ; preds = %2
  %8 = getelementptr inbounds nuw i8, ptr %1, i64 16
  %9 = load ptr, ptr %8, align 8, !tbaa !157
  %10 = getelementptr inbounds nuw i8, ptr %9, i64 24
  %11 = load ptr, ptr %10, align 8, !tbaa !162
  %.not.i.i.i.i = icmp eq ptr %11, null
  br i1 %.not.i.i.i.i, label %_ZN15ref_vector_coreI4expr19ref_manager_wrapperIS0_11ast_managerEE7inc_refEPS0_.exit.i, label %_ZNK11ast_manager6is_andEPK4expr.exit

_ZNK11ast_manager6is_andEPK4expr.exit:            ; preds = %7
  %12 = load i32, ptr %11, align 8, !tbaa !166
  %13 = icmp eq i32 %12, 0
  %14 = getelementptr inbounds nuw i8, ptr %11, i64 4
  %15 = load i32, ptr %14, align 4
  %16 = icmp eq i32 %15, 5
  %17 = select i1 %13, i1 %16, i1 false
  br i1 %17, label %18, label %_ZN15ref_vector_coreI4expr19ref_manager_wrapperIS0_11ast_managerEE7inc_refEPS0_.exit.i

18:                                               ; preds = %_ZNK11ast_manager6is_andEPK4expr.exit
  %19 = getelementptr inbounds nuw i8, ptr %1, i64 24
  %20 = load i32, ptr %19, align 8, !tbaa !170
  %21 = zext i32 %20 to i64
  %.idx = shl nuw nsw i64 %21, 3
  %22 = getelementptr inbounds nuw i8, ptr %1, i64 %.idx
  %.ptr14 = getelementptr inbounds nuw i8, ptr %22, i64 32
  %.not12 = icmp eq i32 %20, 0
  br i1 %.not12, label %.loopexit, label %.lr.ph.preheader

.lr.ph.preheader:                                 ; preds = %18
  %.ptr = getelementptr inbounds nuw i8, ptr %1, i64 32
  br label %.lr.ph

.lr.ph:                                           ; preds = %.lr.ph.preheader, %.lr.ph
  %.013 = phi ptr [ %24, %.lr.ph ], [ %.ptr, %.lr.ph.preheader ]
  %23 = load ptr, ptr %.013, align 8, !tbaa !152
  tail call void @_ZN3sls10smt_solver11assert_exprEP4expr(ptr noundef nonnull align 8 dereferenceable(488) %0, ptr noundef %23)
  %24 = getelementptr inbounds nuw i8, ptr %.013, i64 8
  %.not = icmp eq ptr %24, %.ptr14
  br i1 %.not, label %.loopexit, label %.lr.ph

_ZN15ref_vector_coreI4expr19ref_manager_wrapperIS0_11ast_managerEE7inc_refEPS0_.exit.i: ; preds = %7, %2, %_ZNK11ast_manager6is_andEPK4expr.exit
  %25 = getelementptr inbounds nuw i8, ptr %1, i64 8
  %26 = load i32, ptr %25, align 4, !tbaa !154
  %27 = add i32 %26, 1
  store i32 %27, ptr %25, align 4, !tbaa !154
  %28 = getelementptr inbounds nuw i8, ptr %0, i64 464
  %29 = load ptr, ptr %28, align 8, !tbaa !150
  %30 = icmp eq ptr %29, null
  br i1 %30, label %37, label %31

31:                                               ; preds = %_ZN15ref_vector_coreI4expr19ref_manager_wrapperIS0_11ast_managerEE7inc_refEPS0_.exit.i
  %32 = getelementptr inbounds i8, ptr %29, i64 -4
  %33 = load i32, ptr %32, align 4, !tbaa !151
  %34 = getelementptr inbounds i8, ptr %29, i64 -8
  %35 = load i32, ptr %34, align 4, !tbaa !151
  %36 = icmp eq i32 %33, %35
  br i1 %36, label %37, label %_ZN15ref_vector_coreI4expr19ref_manager_wrapperIS0_11ast_managerEE9push_backEPS0_.exit

37:                                               ; preds = %31, %_ZN15ref_vector_coreI4expr19ref_manager_wrapperIS0_11ast_managerEE7inc_refEPS0_.exit.i
  tail call void @_ZN6vectorIP4exprLb0EjE13expand_vectorEv(ptr noundef nonnull align 8 dereferenceable(8) %28)
  %.pre.i.i = load ptr, ptr %28, align 8, !tbaa !150
  %.phi.trans.insert.i.i = getelementptr inbounds i8, ptr %.pre.i.i, i64 -4
  %.pre2.i.i = load i32, ptr %.phi.trans.insert.i.i, align 4, !tbaa !151
  br label %_ZN15ref_vector_coreI4expr19ref_manager_wrapperIS0_11ast_managerEE9push_backEPS0_.exit

_ZN15ref_vector_coreI4expr19ref_manager_wrapperIS0_11ast_managerEE9push_backEPS0_.exit: ; preds = %31, %37
  %38 = phi i32 [ %.pre2.i.i, %37 ], [ %33, %31 ]
  %39 = phi ptr [ %.pre.i.i, %37 ], [ %29, %31 ]
  %40 = getelementptr inbounds i8, ptr %39, i64 -4
  %41 = zext i32 %38 to i64
  %42 = getelementptr inbounds nuw ptr, ptr %39, i64 %41
  store ptr %1, ptr %42, align 8, !tbaa !152
  %43 = add i32 %38, 1
  store i32 %43, ptr %40, align 4, !tbaa !151
  br label %.loopexit

.loopexit:                                        ; preds = %.lr.ph, %18, %_ZN15ref_vector_coreI4expr19ref_manager_wrapperIS0_11ast_managerEE9push_backEPS0_.exit
  ret void
}